target datalayout = "e-m:e-p270:32:32-p271:32:32-p272:64:64-i64:64-i128:128-f80:128-n8:16:32:64-S128"
target triple = "x86_64-pc-linux-gnu"

@.str.178 = private unnamed_addr constant [10 x i8] c" (0x%.8x)\00", align 1

; Function Attrs: null_pointer_is_valid sspstrong uwtable
define internal void @hf_netlink_route_ifi_flags_label(ptr noundef %0, i32 noundef %1) #0 {
  %3 = alloca ptr, align 8
  %4 = alloca i32, align 4
  %5 = alloca [16 x i8], align 16
  store ptr %0, ptr %3, align 8
  store i32 %1, ptr %4, align 4
  call void @llvm.lifetime.start.p0(i64 16, ptr %5) #4
  %6 = load ptr, ptr %3, align 8
  %7 = load i32, ptr %4, align 4
  call void @_fill_label_value_string_bitmask(ptr noundef %6, i32 noundef %7, ptr noundef @hf_netlink_route_ifi_flags_label.iff_vals)
  %8 = getelementptr inbounds [16 x i8], ptr %5, i64 0, i64 0
  %9 = load i32, ptr %4, align 4
  %10 = call i32 (ptr, i64, i32, i64, ptr, ...) @__snprintf_chk(ptr noundef %8, i64 noundef 16, i32 noundef 2, i64 noundef 16, ptr noundef @.str.178, i32 noundef %9)
  %11 = load ptr, ptr %3, align 8
  %12 = getelementptr inbounds [16 x i8], ptr %5, i64 0, i64 0
  %13 = call i64 @g_strlcat(ptr noundef %11, ptr noundef %12, i64 noundef 240)
  call void @llvm.lifetime.end.p0(i64 16, ptr %5) #4
  ret void
}