; Function Attrs: null_pointer_is_valid sspstrong uwtable
define internal void @hf_netlink_route_ifi_flags_label(ptr noundef initializes((0, 1)) %0, i32 noundef %1) #0 {
  %3 = alloca [16 x i8], align 16
  call void @llvm.lifetime.start.p0(i64 16, ptr nonnull %3) #5
  tail call fastcc void @_fill_label_value_string_bitmask(ptr noundef %0, i32 noundef %1, ptr noundef nonnull @hf_netlink_route_ifi_flags_label.iff_vals)
  %4 = call i32 (ptr, i64, i32, i64, ptr, ...) @__snprintf_chk(ptr noundef nonnull %3, i64 noundef 16, i32 noundef 2, i64 noundef 16, ptr noundef nonnull @.str.178, i32 noundef %1)
  %5 = call i64 @g_strlcat(ptr noundef %0, ptr noundef nonnull %3, i64 noundef 240)
  call void @llvm.lifetime.end.p0(i64 16, ptr nonnull %3) #5
  ret void
}